target datalayout = "e-m:e-p270:32:32-p271:32:32-p272:64:64-i64:64-i128:128-f80:128-n8:16:32:64-S128"
target triple = "x86_64-pc-linux-gnu"

%struct.CFF_IndexRec_ = type { ptr, i64, i32, i32, i8, i64, i64, ptr, ptr }

; Function Attrs: nounwind uwtable
define internal i64 @cff_index_read_offset(ptr noundef %0, ptr noundef %1) #0 {
  %3 = alloca ptr, align 8
  %4 = alloca ptr, align 8
  %5 = alloca i32, align 4
  %6 = alloca ptr, align 8
  %7 = alloca [4 x i8], align 1
  %8 = alloca i64, align 8
  %9 = alloca i32, align 4
  store ptr %0, ptr %3, align 8
  store ptr %1, ptr %4, align 8
  %10 = load ptr, ptr %3, align 8
  %11 = getelementptr inbounds %struct.CFF_IndexRec_, ptr %10, i32 0, i32 0
  %12 = load ptr, ptr %11, align 8
  store ptr %12, ptr %6, align 8
  store i64 0, ptr %8, align 8
  %13 = load ptr, ptr %6, align 8
  %14 = getelementptr inbounds [4 x i8], ptr %7, i64 0, i64 0
  %15 = load ptr, ptr %3, align 8
  %16 = getelementptr inbounds %struct.CFF_IndexRec_, ptr %15, i32 0, i32 4
  %17 = load i8, ptr %16, align 8
  %18 = zext i8 %17 to i64
  %19 = call i32 @FT_Stream_Read(ptr noundef %13, ptr noundef %14, i64 noundef %18)
  store i32 %19, ptr %5, align 4
  %20 = icmp ne i32 %19, 0
  br i1 %20, label %42, label %21

21:                                               ; preds = %2
  store i32 0, ptr %9, align 4
  br label %22

22:                                               ; preds = %38, %21
  %23 = load i32, ptr %9, align 4
  %24 = load ptr, ptr %3, align 8
  %25 = getelementptr inbounds %struct.CFF_IndexRec_, ptr %24, i32 0, i32 4
  %26 = load i8, ptr %25, align 8
  %27 = zext i8 %26 to i32
  %28 = icmp slt i32 %23, %27
  br i1 %28, label %29, label %41

29:                                               ; preds = %22
  %30 = load i64, ptr %8, align 8
  %31 = shl i64 %30, 8
  %32 = load i32, ptr %9, align 4
  %33 = sext i32 %32 to i64
  %34 = getelementptr inbounds [4 x i8], ptr %7, i64 0, i64 %33
  %35 = load i8, ptr %34, align 1
  %36 = zext i8 %35 to i64
  %37 = or i64 %31, %36
  store i64 %37, ptr %8, align 8
  br label %38

38:                                               ; preds = %29
  %39 = load i32, ptr %9, align 4
  %40 = add nsw i32 %39, 1
  store i32 %40, ptr %9, align 4
  br label %22, !llvm.loop !35

41:                                               ; preds = %22
  br label %42

42:                                               ; preds = %41, %2
  %43 = load i32, ptr %5, align 4
  %44 = load ptr, ptr %4, align 8
  store i32 %43, ptr %44, align 4
  %45 = load i64, ptr %8, align 8
  ret i64 %45
}