; Function Attrs: nounwind uwtable
define internal fastcc i64 @cff_index_read_offset(ptr nocapture noundef readonly %0, ptr nocapture noundef writeonly %1) unnamed_addr #4 {
  %3 = alloca [4 x i8], align 1
  %4 = load ptr, ptr %0, align 8
  %5 = getelementptr inbounds i8, ptr %0, i64 24
  %6 = load i8, ptr %5, align 8
  %7 = zext i8 %6 to i64
  %8 = call i32 @FT_Stream_Read(ptr noundef %4, ptr noundef nonnull %3, i64 noundef %7) #20
  %.not = icmp eq i32 %8, 0
  br i1 %.not, label %.preheader, label %.loopexit

.preheader:                                       ; preds = %2
  %9 = load i8, ptr %5, align 8
  %.not13 = icmp eq i8 %9, 0
  br i1 %.not13, label %.loopexit, label %.lr.ph.preheader

.lr.ph.preheader:                                 ; preds = %.preheader
  %wide.trip.count = zext i8 %9 to i64
  br label %.lr.ph

.lr.ph:                                           ; preds = %.lr.ph.preheader, %.lr.ph
  %indvars.iv = phi i64 [ 0, %.lr.ph.preheader ], [ %indvars.iv.next, %.lr.ph ]
  %.01011 = phi i64 [ 0, %.lr.ph.preheader ], [ %14, %.lr.ph ]
  %10 = shl i64 %.01011, 8
  %11 = getelementptr inbounds [4 x i8], ptr %3, i64 0, i64 %indvars.iv
  %12 = load i8, ptr %11, align 1
  %13 = zext i8 %12 to i64
  %14 = or disjoint i64 %10, %13
  %indvars.iv.next = add nuw nsw i64 %indvars.iv, 1
  %exitcond.not = icmp eq i64 %indvars.iv.next, %wide.trip.count
  br i1 %exitcond.not, label %.loopexit, label %.lr.ph, !llvm.loop !34

.loopexit:                                        ; preds = %.lr.ph, %.preheader, %2
  %.1 = phi i64 [ 0, %2 ], [ 0, %.preheader ], [ %14, %.lr.ph ]
  store i32 %8, ptr %1, align 4
  ret i64 %.1
}